#include <math.h>
#include <stdio.h>
#include <stdlib.h>
#include <string.h>

int main()
{
	int row;
	int col;
	int a[100][100];
	scanf("%d",&row);
	scanf("%d",&col);
	int i,j;
	for(i=0;i<row;i++)
	{
		for(j=0;j<col;j++)
		{
			scanf("%d",&a[i][j]);
		}
	}
	int t;
	for(t=0;t<=row+col-2;t++)
	{
		if(t==0)
		{
			printf("\n%d",a[0][0]);
		}
		else if(t>0)
		{
			if(t<=col-1)
			{
				for(i=t;i>=0;i--)
				{
				    if(t-i>=0&&t-i<=row-1)
					{
						printf("\n%d",a[t-i][i]);

					}
				}
			}
			else
			{
				for(i=col-1;i>=0;i--)
				{
				    if(t-i>=0&&t-i<=row-1)
					{
						printf("\n%d",a[t-i][i]);

					}
				}

			}
			
		}
	}
	
return 0;
}